target datalayout = "e-m:e-p270:32:32-p271:32:32-p272:64:64-i64:64-i128:128-f80:128-n8:16:32:64-S128"
target triple = "x86_64-pc-linux-gnu"

%struct.pref_module_alias = type { ptr, ptr }

@prefs_module_aliases = internal global ptr null, align 8
@.str = private unnamed_addr constant [5 x i8] c"Epan\00", align 1
@.str.1 = private unnamed_addr constant [13 x i8] c"epan/prefs.c\00", align 1
@__func__.prefs_register_module_alias = private unnamed_addr constant [28 x i8] c"prefs_register_module_alias\00", align 1
@.str.2 = private unnamed_addr constant [57 x i8] c"Preference module alias \22%s\22 contains invalid characters\00", align 1
@.str.3 = private unnamed_addr constant [55 x i8] c"Preference module alias \22%s\22 is being registered twice\00", align 1

; Function Attrs: null_pointer_is_valid sspstrong uwtable
define internal ptr @prefs_find_module_alias(ptr noundef %0) #1 {
  %2 = alloca ptr, align 8
  %3 = alloca ptr, align 8
  %4 = alloca ptr, align 8
  %5 = alloca i32, align 4
  store ptr %0, ptr %3, align 8
  call void @llvm.lifetime.start.p0(i64 8, ptr %4) #17
  %6 = load ptr, ptr @prefs_module_aliases, align 8
  %7 = load ptr, ptr %3, align 8
  %8 = call ptr @wmem_tree_lookup_string(ptr noundef %6, ptr noundef %7, i32 noundef 1)
  store ptr %8, ptr %4, align 8
  %9 = load ptr, ptr %4, align 8
  %10 = icmp eq ptr %9, null
  br i1 %10, label %11, label %12

11:                                               ; preds = %1
  store ptr null, ptr %2, align 8
  store i32 1, ptr %5, align 4
  br label %16

12:                                               ; preds = %1
  %13 = load ptr, ptr %4, align 8
  %14 = getelementptr inbounds nuw %struct.pref_module_alias, ptr %13, i32 0, i32 1
  %15 = load ptr, ptr %14, align 8
  store ptr %15, ptr %2, align 8
  store i32 1, ptr %5, align 4
  br label %16

16:                                               ; preds = %12, %11
  call void @llvm.lifetime.end.p0(i64 8, ptr %4) #17
  %17 = load ptr, ptr %2, align 8
  ret ptr %17
}

; Function Attrs: null_pointer_is_valid sspstrong uwtable
define void @prefs_register_module_alias(ptr noundef %0, ptr noundef %1) #1 {
  %3 = alloca ptr, align 8
  %4 = alloca ptr, align 8
  %5 = alloca ptr, align 8
  store ptr %0, ptr %3, align 8
  store ptr %1, ptr %4, align 8
  call void @llvm.lifetime.start.p0(i64 8, ptr %5) #17
  %6 = load ptr, ptr %3, align 8
  %7 = call zeroext i8 @module_check_valid_name(ptr noundef %6, i1 noundef zeroext false)
  %8 = zext i8 %7 to i32
  %9 = icmp ne i32 %8, 0
  br i1 %9, label %10, label %12

10:                                               ; preds = %2
  %11 = load ptr, ptr %3, align 8
  call void (ptr, i32, ptr, i64, ptr, ptr, ...) @ws_log_fatal_full(ptr noundef @.str, i32 noundef 7, ptr noundef @.str.1, i64 noundef 604, ptr noundef @__func__.prefs_register_module_alias, ptr noundef @.str.2, ptr noundef %11) #18
  unreachable

12:                                               ; preds = %2
  %13 = load ptr, ptr %3, align 8
  %14 = call ptr @prefs_find_module_alias(ptr noundef %13)
  %15 = icmp ne ptr %14, null
  br i1 %15, label %16, label %18

16:                                               ; preds = %12
  %17 = load ptr, ptr %3, align 8
  call void (ptr, i32, ptr, i64, ptr, ptr, ...) @ws_log_fatal_full(ptr noundef @.str, i32 noundef 7, ptr noundef @.str.1, i64 noundef 616, ptr noundef @__func__.prefs_register_module_alias, ptr noundef @.str.3, ptr noundef %17) #18
  unreachable

18:                                               ; preds = %12
  %19 = call ptr @wmem_epan_scope()
  %20 = call noalias ptr @wmem_alloc(ptr noundef %19, i64 noundef 16) #19
  store ptr %20, ptr %5, align 8
  %21 = load ptr, ptr %3, align 8
  %22 = load ptr, ptr %5, align 8
  %23 = getelementptr inbounds nuw %struct.pref_module_alias, ptr %22, i32 0, i32 0
  store ptr %21, ptr %23, align 8
  %24 = load ptr, ptr %4, align 8
  %25 = load ptr, ptr %5, align 8
  %26 = getelementptr inbounds nuw %struct.pref_module_alias, ptr %25, i32 0, i32 1
  store ptr %24, ptr %26, align 8
  %27 = load ptr, ptr @prefs_module_aliases, align 8
  %28 = load ptr, ptr %3, align 8
  %29 = load ptr, ptr %5, align 8
  call void @wmem_tree_insert_string(ptr noundef %27, ptr noundef %28, ptr noundef %29, i32 noundef 1)
  call void @llvm.lifetime.end.p0(i64 8, ptr %5) #17
  ret void
}