; Function Attrs: null_pointer_is_valid sspstrong uwtable
define void @prefs_register_module_alias(ptr noundef %0, ptr noundef %1) local_unnamed_addr #1 {
  %3 = tail call zeroext i8 @module_check_valid_name(ptr noundef %0, i1 noundef zeroext false)
  %.not = icmp eq i8 %3, 0
  br i1 %.not, label %5, label %4

4:                                                ; preds = %2
  tail call void (ptr, i32, ptr, i64, ptr, ptr, ...) @ws_log_fatal_full(ptr noundef nonnull @.str, i32 noundef 7, ptr noundef nonnull @.str.1, i64 noundef 604, ptr noundef nonnull @__func__.prefs_register_module_alias, ptr noundef nonnull @.str.2, ptr noundef %0) #26
  unreachable

5:                                                ; preds = %2
  %6 = load ptr, ptr @prefs_module_aliases, align 8
  %7 = tail call ptr @wmem_tree_lookup_string(ptr noundef %6, ptr noundef %0, i32 noundef 1)
  %8 = icmp eq ptr %7, null
  br i1 %8, label %prefs_find_module_alias.exit.thread, label %prefs_find_module_alias.exit

prefs_find_module_alias.exit:                     ; preds = %5
  %9 = getelementptr inbounds nuw i8, ptr %7, i64 8
  %10 = load ptr, ptr %9, align 8
  %.not10 = icmp eq ptr %10, null
  br i1 %.not10, label %prefs_find_module_alias.exit.thread, label %11

11:                                               ; preds = %prefs_find_module_alias.exit
  tail call void (ptr, i32, ptr, i64, ptr, ptr, ...) @ws_log_fatal_full(ptr noundef nonnull @.str, i32 noundef 7, ptr noundef nonnull @.str.1, i64 noundef 616, ptr noundef nonnull @__func__.prefs_register_module_alias, ptr noundef nonnull @.str.3, ptr noundef %0) #26
  unreachable

prefs_find_module_alias.exit.thread:              ; preds = %5, %prefs_find_module_alias.exit
  %12 = tail call ptr @wmem_epan_scope()
  %13 = tail call noalias dereferenceable_or_null(16) ptr @wmem_alloc(ptr noundef %12, i64 noundef 16) #27
  store ptr %0, ptr %13, align 8
  %14 = getelementptr inbounds nuw i8, ptr %13, i64 8
  store ptr %1, ptr %14, align 8
  %15 = load ptr, ptr @prefs_module_aliases, align 8
  tail call void @wmem_tree_insert_string(ptr noundef %15, ptr noundef %0, ptr noundef %13, i32 noundef 1)
  ret void
}